; Function Attrs: nounwind uwtable
define void @evhttp_connection_set_local_address(ptr noundef captures(none) %0, ptr noundef %1) local_unnamed_addr #0 {
  %3 = getelementptr inbounds nuw i8, ptr %0, i64 144
  %4 = load ptr, ptr %3, align 8
  %.not = icmp eq ptr %4, null
  br i1 %.not, label %6, label %5

5:                                                ; preds = %2
  tail call void @event_mm_free_(ptr noundef nonnull %4) #18
  br label %6

6:                                                ; preds = %5, %2
  %7 = tail call ptr @event_mm_strdup_(ptr noundef %1) #18
  store ptr %7, ptr %3, align 8
  %8 = icmp eq ptr %7, null
  br i1 %8, label %9, label %10

9:                                                ; preds = %6
  tail call void (ptr, ...) @event_warn(ptr noundef nonnull @.str.2, ptr noundef nonnull @__func__.evhttp_connection_set_local_address) #18
  br label %10

10:                                               ; preds = %9, %6
  ret void
}